; Function Attrs: nounwind uwtable
define void @lv_vector_path_copy(ptr noundef %0, ptr noundef %1) local_unnamed_addr #3 {
  %3 = load i32, ptr %1, align 8, !tbaa !12
  store i32 %3, ptr %0, align 8, !tbaa !12
  %4 = getelementptr inbounds nuw i8, ptr %0, i64 8
  %5 = getelementptr inbounds nuw i8, ptr %1, i64 8
  tail call void @lv_array_copy(ptr noundef nonnull %4, ptr noundef nonnull %5) #9
  %6 = getelementptr inbounds nuw i8, ptr %0, i64 32
  %7 = getelementptr inbounds nuw i8, ptr %1, i64 32
  tail call void @lv_array_copy(ptr noundef nonnull %6, ptr noundef nonnull %7) #9
  ret void
}